target datalayout = "e-m:e-p270:32:32-p271:32:32-p272:64:64-i64:64-i128:128-f80:128-n8:16:32:64-S128"
target triple = "x86_64-pc-linux-gnu"

%"class.absl::Condition" = type { [16 x i8], ptr, ptr }

; Function Attrs: mustprogress nounwind uwtable
define dso_local noundef zeroext i1 @_ZN4absl9Condition15GuaranteedEqualEPKS0_S2_(ptr noundef %0, ptr noundef %1) #5 align 2 {
  %3 = alloca i1, align 1
  %4 = alloca ptr, align 8
  %5 = alloca ptr, align 8
  store ptr %0, ptr %4, align 8, !tbaa !105
  store ptr %1, ptr %5, align 8, !tbaa !105
  %6 = load ptr, ptr %4, align 8, !tbaa !105
  %7 = icmp eq ptr %6, null
  br i1 %7, label %11, label %8

8:                                                ; preds = %2
  %9 = load ptr, ptr %5, align 8, !tbaa !105
  %10 = icmp eq ptr %9, null
  br i1 %10, label %11, label %15

11:                                               ; preds = %8, %2
  %12 = load ptr, ptr %4, align 8, !tbaa !105
  %13 = load ptr, ptr %5, align 8, !tbaa !105
  %14 = icmp eq ptr %12, %13
  store i1 %14, ptr %3, align 1
  br label %43

15:                                               ; preds = %8
  %16 = load ptr, ptr %4, align 8, !tbaa !105
  %17 = getelementptr inbounds nuw %"class.absl::Condition", ptr %16, i32 0, i32 1
  %18 = load ptr, ptr %17, align 8, !tbaa !112
  %19 = load ptr, ptr %5, align 8, !tbaa !105
  %20 = getelementptr inbounds nuw %"class.absl::Condition", ptr %19, i32 0, i32 1
  %21 = load ptr, ptr %20, align 8, !tbaa !112
  %22 = icmp eq ptr %18, %21
  br i1 %22, label %23, label %41

23:                                               ; preds = %15
  %24 = load ptr, ptr %4, align 8, !tbaa !105
  %25 = getelementptr inbounds nuw %"class.absl::Condition", ptr %24, i32 0, i32 2
  %26 = load ptr, ptr %25, align 8, !tbaa !170
  %27 = load ptr, ptr %5, align 8, !tbaa !105
  %28 = getelementptr inbounds nuw %"class.absl::Condition", ptr %27, i32 0, i32 2
  %29 = load ptr, ptr %28, align 8, !tbaa !170
  %30 = icmp eq ptr %26, %29
  br i1 %30, label %31, label %41

31:                                               ; preds = %23
  %32 = load ptr, ptr %4, align 8, !tbaa !105
  %33 = getelementptr inbounds nuw %"class.absl::Condition", ptr %32, i32 0, i32 0
  %34 = getelementptr inbounds [16 x i8], ptr %33, i64 0, i64 0
  %35 = load ptr, ptr %5, align 8, !tbaa !105
  %36 = getelementptr inbounds nuw %"class.absl::Condition", ptr %35, i32 0, i32 0
  %37 = getelementptr inbounds [16 x i8], ptr %36, i64 0, i64 0
  %38 = call i32 @memcmp(ptr noundef %34, ptr noundef %37, i64 noundef 16) #20
  %39 = icmp ne i32 %38, 0
  %40 = xor i1 %39, true
  br label %41

41:                                               ; preds = %31, %23, %15
  %42 = phi i1 [ false, %23 ], [ false, %15 ], [ %40, %31 ]
  store i1 %42, ptr %3, align 1
  br label %43

43:                                               ; preds = %41, %11
  %44 = load i1, ptr %3, align 1
  ret i1 %44
}