; Function Attrs: mustprogress nofree nounwind willreturn memory(argmem: read) uwtable
define dso_local noundef zeroext i1 @_ZN4absl9Condition15GuaranteedEqualEPKS0_S2_(ptr noundef readonly captures(address) %0, ptr noundef readonly captures(address) %1) local_unnamed_addr #16 align 2 {
  %3 = icmp eq ptr %0, null
  %4 = icmp eq ptr %1, null
  %or.cond = or i1 %3, %4
  br i1 %or.cond, label %5, label %7

5:                                                ; preds = %2
  %6 = icmp eq ptr %0, %1
  br label %20

7:                                                ; preds = %2
  %8 = getelementptr inbounds nuw i8, ptr %0, i64 16
  %9 = load ptr, ptr %8, align 8, !tbaa !67
  %10 = getelementptr inbounds nuw i8, ptr %1, i64 16
  %11 = load ptr, ptr %10, align 8, !tbaa !67
  %12 = icmp eq ptr %9, %11
  br i1 %12, label %13, label %20

13:                                               ; preds = %7
  %14 = getelementptr inbounds nuw i8, ptr %0, i64 24
  %15 = load ptr, ptr %14, align 8, !tbaa !69
  %16 = getelementptr inbounds nuw i8, ptr %1, i64 24
  %17 = load ptr, ptr %16, align 8, !tbaa !69
  %18 = icmp eq ptr %15, %17
  br i1 %18, label %19, label %20

19:                                               ; preds = %13
  %bcmp = tail call i32 @bcmp(ptr noundef nonnull dereferenceable(16) %0, ptr noundef nonnull dereferenceable(16) %1, i64 16)
  %.not = icmp eq i32 %bcmp, 0
  br label %20

20:                                               ; preds = %7, %13, %19, %5
  %.0 = phi i1 [ %6, %5 ], [ false, %13 ], [ false, %7 ], [ %.not, %19 ]
  ret i1 %.0
}